target datalayout = "e-m:e-p270:32:32-p271:32:32-p272:64:64-i64:64-i128:128-f80:128-n8:16:32:64-S128"
target triple = "x86_64-pc-linux-gnu"

%struct._packet_info = type { ptr, ptr, i32, i32, %struct.nstime_t, %struct.nstime_t, %struct.nstime_t, i8, ptr, ptr, ptr, ptr, %struct._address, %struct._address, %struct._address, %struct._address, %struct._address, %struct._address, i32, ptr, i8, [3 x i8], %struct.anon, i32, i32, i32, i32, ptr, i8, ptr, ptr, i16, i16, i32, i32, i16, i32, i32, ptr, ptr, ptr, i8, i8, i16, i16, i16, i32, i16, i16, ptr, ptr, ptr, ptr, ptr, i32, i32 }
%struct.nstime_t = type { i64, i32 }
%struct._address = type { i32, i32, ptr, ptr }
%struct.anon = type { i8, [3 x i8] }

@ett_h264 = internal global i32 0, align 4
@.str.385 = private unnamed_addr constant [6 x i8] c"H.264\00", align 1
@proto_h264 = internal global i32 0, align 4

; Function Attrs: null_pointer_is_valid sspstrong uwtable
define internal i32 @dissect_h264_bytestream(ptr noundef %0, ptr noundef %1, ptr noundef %2, ptr noundef %3) #0 {
  %5 = alloca i32, align 4
  %6 = alloca ptr, align 8
  %7 = alloca ptr, align 8
  %8 = alloca ptr, align 8
  %9 = alloca ptr, align 8
  %10 = alloca ptr, align 8
  %11 = alloca ptr, align 8
  %12 = alloca ptr, align 8
  %13 = alloca ptr, align 8
  %14 = alloca i32, align 4
  %15 = alloca i32, align 4
  %16 = alloca i32, align 4
  %17 = alloca i32, align 4
  %18 = alloca i32, align 4
  store ptr %0, ptr %6, align 8
  store ptr %1, ptr %7, align 8
  store ptr %2, ptr %8, align 8
  store ptr %3, ptr %9, align 8
  call void @llvm.lifetime.start.p0(i64 8, ptr %10) #7
  call void @llvm.lifetime.start.p0(i64 8, ptr %11) #7
  call void @llvm.lifetime.start.p0(i64 8, ptr %12) #7
  call void @llvm.lifetime.start.p0(i64 8, ptr %13) #7
  call void @llvm.lifetime.start.p0(i64 4, ptr %14) #7
  store i32 0, ptr %14, align 4
  call void @llvm.lifetime.start.p0(i64 4, ptr %15) #7
  call void @llvm.lifetime.start.p0(i64 4, ptr %16) #7
  br label %19

19:                                               ; preds = %41, %4
  br label %20

20:                                               ; preds = %19
  %21 = load ptr, ptr %6, align 8
  %22 = call i32 @tvb_reported_length(ptr noundef %21)
  %23 = icmp ult i32 %22, 4
  br i1 %23, label %24, label %25

24:                                               ; preds = %20
  store i32 0, ptr %5, align 4
  store i32 1, ptr %17, align 4
  br label %114

25:                                               ; preds = %20
  %26 = load ptr, ptr %6, align 8
  %27 = load i32, ptr %14, align 4
  %28 = call i32 @tvb_get_uint32(ptr noundef %26, i32 noundef %27, i32 noundef 0)
  store i32 %28, ptr %16, align 4
  %29 = load i32, ptr %16, align 4
  %30 = lshr i32 %29, 8
  %31 = icmp eq i32 %30, 1
  br i1 %31, label %35, label %32

32:                                               ; preds = %25
  %33 = load i32, ptr %16, align 4
  %34 = icmp eq i32 %33, 1
  br i1 %34, label %35, label %36

35:                                               ; preds = %32, %25
  br label %44

36:                                               ; preds = %32
  %37 = load i32, ptr %16, align 4
  %38 = icmp ne i32 %37, 0
  br i1 %38, label %39, label %40

39:                                               ; preds = %36
  store i32 0, ptr %5, align 4
  store i32 1, ptr %17, align 4
  br label %114

40:                                               ; preds = %36
  br label %41

41:                                               ; preds = %40
  %42 = load i32, ptr %14, align 4
  %43 = add i32 %42, 2
  store i32 %43, ptr %14, align 4
  br label %19

44:                                               ; preds = %35
  %45 = load ptr, ptr %7, align 8
  %46 = getelementptr inbounds nuw %struct._packet_info, ptr %45, i32 0, i32 1
  %47 = load ptr, ptr %46, align 8
  call void @col_set_str(ptr noundef %47, i32 noundef 35, ptr noundef @.str.385)
  %48 = load ptr, ptr %8, align 8
  %49 = load i32, ptr @proto_h264, align 4
  %50 = load ptr, ptr %6, align 8
  %51 = call ptr @proto_tree_add_item(ptr noundef %48, i32 noundef %49, ptr noundef %50, i32 noundef 0, i32 noundef -1, i32 noundef 0)
  store ptr %51, ptr %11, align 8
  %52 = load ptr, ptr %11, align 8
  %53 = load i32, ptr @ett_h264, align 4
  %54 = call ptr @proto_item_add_subtree(ptr noundef %52, i32 noundef %53)
  store ptr %54, ptr %10, align 8
  br label %55

55:                                               ; preds = %97, %44
  %56 = load ptr, ptr %6, align 8
  %57 = load i32, ptr %14, align 4
  %58 = call i32 @tvb_reported_length_remaining(ptr noundef %56, i32 noundef %57)
  %59 = icmp ne i32 %58, 0
  br i1 %59, label %60, label %111

60:                                               ; preds = %55
  %61 = load ptr, ptr %6, align 8
  %62 = load i32, ptr %14, align 4
  %63 = call i32 @tvb_get_uint32(ptr noundef %61, i32 noundef %62, i32 noundef 0)
  store i32 %63, ptr %16, align 4
  %64 = load i32, ptr %16, align 4
  %65 = lshr i32 %64, 8
  %66 = icmp ne i32 %65, 1
  br i1 %66, label %67, label %70

67:                                               ; preds = %60
  %68 = load i32, ptr %14, align 4
  %69 = add i32 %68, 1
  store i32 %69, ptr %14, align 4
  br label %70

70:                                               ; preds = %67, %60
  %71 = load i32, ptr %14, align 4
  %72 = add i32 %71, 3
  store i32 %72, ptr %14, align 4
  call void @llvm.lifetime.start.p0(i64 4, ptr %18) #7
  %73 = load ptr, ptr %6, align 8
  %74 = load i32, ptr %14, align 4
  %75 = call i32 @tvb_reported_length_remaining(ptr noundef %73, i32 noundef %74)
  store i32 %75, ptr %18, align 4
  %76 = load ptr, ptr %6, align 8
  %77 = load i32, ptr %14, align 4
  %78 = call i32 @tvb_find_uint16(ptr noundef %76, i32 noundef %77, i32 noundef -1, i16 noundef zeroext 0)
  store i32 %78, ptr %15, align 4
  br label %79

79:                                               ; preds = %92, %70
  %80 = load i32, ptr %15, align 4
  %81 = icmp ne i32 %80, -1
  br i1 %81, label %82, label %97

82:                                               ; preds = %79
  %83 = load ptr, ptr %6, align 8
  %84 = load i32, ptr %15, align 4
  %85 = add i32 %84, 1
  %86 = call i32 @tvb_find_uint16(ptr noundef %83, i32 noundef %85, i32 noundef 3, i16 noundef zeroext 1)
  %87 = icmp ne i32 %86, -1
  br i1 %87, label %88, label %92

88:                                               ; preds = %82
  %89 = load i32, ptr %15, align 4
  %90 = load i32, ptr %14, align 4
  %91 = sub i32 %89, %90
  store i32 %91, ptr %18, align 4
  br label %97

92:                                               ; preds = %82
  %93 = load ptr, ptr %6, align 8
  %94 = load i32, ptr %15, align 4
  %95 = add i32 %94, 1
  %96 = call i32 @tvb_find_uint16(ptr noundef %93, i32 noundef %95, i32 noundef -1, i16 noundef zeroext 0)
  store i32 %96, ptr %15, align 4
  br label %79, !llvm.loop !9

97:                                               ; preds = %88, %79
  %98 = load ptr, ptr %6, align 8
  %99 = load i32, ptr %14, align 4
  %100 = load i32, ptr %18, align 4
  %101 = call ptr @tvb_new_subset_length(ptr noundef %98, i32 noundef %99, i32 noundef %100)
  store ptr %101, ptr %12, align 8
  %102 = load ptr, ptr %12, align 8
  %103 = load ptr, ptr %7, align 8
  %104 = call ptr @dissect_h265_unescap_nal_unit(ptr noundef %102, ptr noundef %103, i32 noundef 0)
  store ptr %104, ptr %13, align 8
  %105 = load ptr, ptr %13, align 8
  %106 = load ptr, ptr %7, align 8
  %107 = load ptr, ptr %10, align 8
  call void @dissect_h264_nal_unit(ptr noundef %105, ptr noundef %106, ptr noundef %107)
  %108 = load i32, ptr %18, align 4
  %109 = load i32, ptr %14, align 4
  %110 = add i32 %109, %108
  store i32 %110, ptr %14, align 4
  call void @llvm.lifetime.end.p0(i64 4, ptr %18) #7
  br label %55, !llvm.loop !10

111:                                              ; preds = %55
  %112 = load ptr, ptr %6, align 8
  %113 = call i32 @tvb_reported_length(ptr noundef %112)
  store i32 %113, ptr %5, align 4
  store i32 1, ptr %17, align 4
  br label %114

114:                                              ; preds = %111, %39, %24
  call void @llvm.lifetime.end.p0(i64 4, ptr %16) #7
  call void @llvm.lifetime.end.p0(i64 4, ptr %15) #7
  call void @llvm.lifetime.end.p0(i64 4, ptr %14) #7
  call void @llvm.lifetime.end.p0(i64 8, ptr %13) #7
  call void @llvm.lifetime.end.p0(i64 8, ptr %12) #7
  call void @llvm.lifetime.end.p0(i64 8, ptr %11) #7
  call void @llvm.lifetime.end.p0(i64 8, ptr %10) #7
  %115 = load i32, ptr %5, align 4
  ret i32 %115
}