; Function Attrs: null_pointer_is_valid sspstrong uwtable
define internal i32 @dissect_h264_bytestream(ptr noundef %0, ptr noundef %1, ptr noundef %2, ptr readnone captures(none) %3) #0 {
  %5 = tail call i32 @tvb_reported_length(ptr noundef %0)
  %6 = icmp ult i32 %5, 4
  br i1 %6, label %.loopexit50, label %.lr.ph

.lr.ph:                                           ; preds = %4, %11
  %.04253 = phi i32 [ %12, %11 ], [ 0, %4 ]
  %7 = tail call i32 @tvb_get_uint32(ptr noundef %0, i32 noundef %.04253, i32 noundef 0)
  %.mask = and i32 %7, -256
  %8 = icmp eq i32 %.mask, 256
  %9 = icmp eq i32 %7, 1
  %or.cond = or i1 %9, %8
  br i1 %or.cond, label %15, label %10

10:                                               ; preds = %.lr.ph
  %.not = icmp eq i32 %7, 0
  br i1 %.not, label %11, label %.loopexit50

11:                                               ; preds = %10
  %12 = add i32 %.04253, 2
  %13 = tail call i32 @tvb_reported_length(ptr noundef %0)
  %14 = icmp ult i32 %13, 4
  br i1 %14, label %.loopexit50, label %.lr.ph

15:                                               ; preds = %.lr.ph
  %16 = getelementptr inbounds nuw i8, ptr %1, i64 8
  %17 = load ptr, ptr %16, align 8
  tail call void @col_set_str(ptr noundef %17, i32 noundef 35, ptr noundef nonnull @.str.385)
  %18 = load i32, ptr @proto_h264, align 4
  %19 = tail call ptr @proto_tree_add_item(ptr noundef %2, i32 noundef %18, ptr noundef %0, i32 noundef 0, i32 noundef -1, i32 noundef 0)
  %20 = load i32, ptr @ett_h264, align 4
  %21 = tail call ptr @proto_item_add_subtree(ptr noundef %19, i32 noundef %20)
  %22 = tail call i32 @tvb_reported_length_remaining(ptr noundef %0, i32 noundef %.04253)
  %.not4558 = icmp eq i32 %22, 0
  br i1 %.not4558, label %._crit_edge, label %.lr.ph60

.lr.ph60:                                         ; preds = %15, %.loopexit
  %.159 = phi i32 [ %36, %.loopexit ], [ %.04253, %15 ]
  %23 = tail call i32 @tvb_get_uint32(ptr noundef %0, i32 noundef %.159, i32 noundef 0)
  %.mask47 = and i32 %23, -256
  %.not46 = icmp ne i32 %.mask47, 256
  %24 = zext i1 %.not46 to i32
  %spec.select = add i32 %.159, 3
  %25 = add i32 %spec.select, %24
  %26 = tail call i32 @tvb_reported_length_remaining(ptr noundef %0, i32 noundef %25)
  %27 = tail call i32 @tvb_find_uint16(ptr noundef %0, i32 noundef %25, i32 noundef -1, i16 noundef zeroext 0)
  %.not4855 = icmp eq i32 %27, -1
  br i1 %.not4855, label %.loopexit, label %.lr.ph57

.lr.ph57:                                         ; preds = %.lr.ph60, %32
  %.04156 = phi i32 [ %33, %32 ], [ %27, %.lr.ph60 ]
  %28 = add nuw i32 %.04156, 1
  %29 = tail call i32 @tvb_find_uint16(ptr noundef %0, i32 noundef %28, i32 noundef 3, i16 noundef zeroext 1)
  %.not49 = icmp eq i32 %29, -1
  br i1 %.not49, label %32, label %30

30:                                               ; preds = %.lr.ph57
  %31 = sub i32 %.04156, %25
  br label %.loopexit

32:                                               ; preds = %.lr.ph57
  %33 = tail call i32 @tvb_find_uint16(ptr noundef %0, i32 noundef %28, i32 noundef -1, i16 noundef zeroext 0)
  %.not48 = icmp eq i32 %33, -1
  br i1 %.not48, label %.loopexit, label %.lr.ph57, !llvm.loop !20

.loopexit:                                        ; preds = %32, %.lr.ph60, %30
  %.0 = phi i32 [ %31, %30 ], [ %26, %.lr.ph60 ], [ %26, %32 ]
  %34 = tail call ptr @tvb_new_subset_length(ptr noundef %0, i32 noundef %25, i32 noundef %.0)
  %35 = tail call fastcc ptr @dissect_h265_unescap_nal_unit(ptr noundef %34, ptr noundef %1, i32 noundef 0)
  tail call void @dissect_h264_nal_unit(ptr noundef %35, ptr noundef %1, ptr noundef %21)
  %36 = add i32 %.0, %25
  %37 = tail call i32 @tvb_reported_length_remaining(ptr noundef %0, i32 noundef %36)
  %.not45 = icmp eq i32 %37, 0
  br i1 %.not45, label %._crit_edge, label %.lr.ph60, !llvm.loop !21

._crit_edge:                                      ; preds = %.loopexit, %15
  %38 = tail call i32 @tvb_reported_length(ptr noundef %0)
  br label %.loopexit50

.loopexit50:                                      ; preds = %11, %10, %4, %._crit_edge
  %.043 = phi i32 [ %38, %._crit_edge ], [ 0, %4 ], [ 0, %10 ], [ 0, %11 ]
  ret i32 %.043
}